; Function Attrs: mustprogress uwtable
define dso_local i32 @_ZNK4absl12crc_internal23FallbackCrcMemcpyEngine7ComputeEPvPKvmNS_8crc32c_tE(ptr nocapture nonnull readnone align 8 %this, ptr noalias nocapture noundef writeonly %dst, ptr noalias noundef %src, i64 noundef %length, i32 %initial_crc.coerce) unnamed_addr #0 align 2 {
entry:
  %cmp21 = icmp ugt i64 %length, 8192
  br i1 %cmp21, label %for.body, label %for.end

for.body:                                         ; preds = %entry, %for.body
  %add24 = phi i64 [ %add, %for.body ], [ 8192, %entry ]
  %retval.sroa.0.023 = phi i32 [ %call9.i, %for.body ], [ %initial_crc.coerce, %entry ]
  %offset.022 = phi i64 [ %add24, %for.body ], [ 0, %entry ]
  %add.ptr = getelementptr inbounds i8, ptr %src, i64 %offset.022
  %call9.i = tail call i32 @_ZN4absl12crc_internal20ExtendCrc32cInternalENS_8crc32c_tESt17basic_string_viewIcSt11char_traitsIcEE(i32 %retval.sroa.0.023, i64 8192, ptr %add.ptr)
  %add.ptr5 = getelementptr inbounds i8, ptr %dst, i64 %offset.022
  tail call void @llvm.memcpy.p0.p0.i64(ptr noundef nonnull align 1 dereferenceable(8192) %add.ptr5, ptr noundef nonnull align 1 dereferenceable(8192) %add.ptr, i64 8192, i1 false)
  %add = add i64 %add24, 8192
  %cmp = icmp ult i64 %add, %length
  br i1 %cmp, label %for.body, label %for.end, !llvm.loop !5

for.end:                                          ; preds = %for.body, %entry
  %offset.0.lcssa = phi i64 [ 0, %entry ], [ %add24, %for.body ]
  %retval.sroa.0.0.lcssa = phi i32 [ %initial_crc.coerce, %entry ], [ %call9.i, %for.body ]
  %cmp8 = icmp ult i64 %offset.0.lcssa, %length
  br i1 %cmp8, label %if.then, label %if.end

if.then:                                          ; preds = %for.end
  %sub = sub i64 %length, %offset.0.lcssa
  %add.ptr12 = getelementptr inbounds i8, ptr %src, i64 %offset.0.lcssa
  %call9.i20 = tail call i32 @_ZN4absl12crc_internal20ExtendCrc32cInternalENS_8crc32c_tESt17basic_string_viewIcSt11char_traitsIcEE(i32 %retval.sroa.0.0.lcssa, i64 %sub, ptr %add.ptr12)
  %add.ptr16 = getelementptr inbounds i8, ptr %dst, i64 %offset.0.lcssa
  tail call void @llvm.memcpy.p0.p0.i64(ptr align 1 %add.ptr16, ptr align 1 %add.ptr12, i64 %sub, i1 false)
  br label %if.end

if.end:                                           ; preds = %if.then, %for.end
  %retval.sroa.0.1 = phi i32 [ %call9.i20, %if.then ], [ %retval.sroa.0.0.lcssa, %for.end ]
  ret i32 %retval.sroa.0.1
}